target datalayout = "e-m:e-p270:32:32-p271:32:32-p272:64:64-i64:64-i128:128-f80:128-n8:16:32:64-S128"
target triple = "x86_64-pc-linux-gnu"

%"class.absl::Notification" = type <{ %"class.absl::Mutex", %"struct.std::atomic.0", [7 x i8] }>
%"class.absl::Mutex" = type { %"struct.std::atomic" }
%"struct.std::atomic" = type { %"struct.std::__atomic_base" }
%"struct.std::__atomic_base" = type { i64 }
%"struct.std::atomic.0" = type { %"struct.std::__atomic_base.1" }
%"struct.std::__atomic_base.1" = type { i8 }
%"class.absl::Condition" = type { [16 x i8], ptr, ptr }
%"class.absl::synchronization_internal::KernelTimeout" = type { i64 }
%"class.absl::Duration" = type { %"class.absl::Duration::HiRep", i32 }
%"class.absl::Duration::HiRep" = type { i32, i32 }

; Function Attrs: mustprogress nounwind uwtable
define linkonce_odr dso_local noundef i32 @_ZStanSt12memory_orderSt23__memory_order_modifier(i32 noundef %0, i32 noundef %1) #4 comdat {
  %3 = alloca i32, align 4
  %4 = alloca i32, align 4
  store i32 %0, ptr %3, align 4, !tbaa !22
  store i32 %1, ptr %4, align 4, !tbaa !37
  %5 = load i32, ptr %3, align 4, !tbaa !22
  %6 = load i32, ptr %4, align 4, !tbaa !37
  %7 = and i32 %5, %6
  ret i32 %7
}

; Function Attrs: alwaysinline mustprogress nounwind uwtable
define linkonce_odr dso_local noundef zeroext i1 @_ZNKSt13__atomic_baseIbE4loadESt12memory_order(ptr noundef nonnull align 1 dereferenceable(1) %0, i32 noundef %1) #6 comdat align 2 {
  %3 = alloca ptr, align 8
  %4 = alloca i32, align 4
  %5 = alloca i32, align 4
  %6 = alloca i8, align 1
  store ptr %0, ptr %3, align 8, !tbaa !35
  store i32 %1, ptr %4, align 4, !tbaa !22
  %7 = load ptr, ptr %3, align 8
  call void @llvm.lifetime.start.p0(i64 4, ptr %5) #9
  %8 = load i32, ptr %4, align 4, !tbaa !22
  %9 = call noundef i32 @_ZStanSt12memory_orderSt23__memory_order_modifier(i32 noundef %8, i32 noundef 65535)
  store i32 %9, ptr %5, align 4, !tbaa !22
  br label %10

10:                                               ; preds = %2
  br label %11

11:                                               ; preds = %10
  br label %12

12:                                               ; preds = %11
  br label %13

13:                                               ; preds = %12
  br label %14

14:                                               ; preds = %13
  br label %15

15:                                               ; preds = %14
  %16 = getelementptr inbounds nuw %"struct.std::__atomic_base.1", ptr %7, i32 0, i32 0
  %17 = load i32, ptr %4, align 4, !tbaa !22
  switch i32 %17, label %18 [
    i32 1, label %20
    i32 2, label %20
    i32 5, label %22
  ]

18:                                               ; preds = %15
  %19 = load atomic i8, ptr %16 monotonic, align 1
  store i8 %19, ptr %6, align 1
  br label %24

20:                                               ; preds = %15, %15
  %21 = load atomic i8, ptr %16 acquire, align 1
  store i8 %21, ptr %6, align 1
  br label %24

22:                                               ; preds = %15
  %23 = load atomic i8, ptr %16 seq_cst, align 1
  store i8 %23, ptr %6, align 1
  br label %24

24:                                               ; preds = %22, %20, %18
  %25 = load i8, ptr %6, align 1, !tbaa !20, !range !24, !noundef !25
  %26 = trunc i8 %25 to i1
  call void @llvm.lifetime.end.p0(i64 4, ptr %5) #9
  ret i1 %26
}

; Function Attrs: inlinehint mustprogress nounwind uwtable
define linkonce_odr dso_local void @_ZN4absl9Condition13StoreCallbackIPFbPKSt6atomicIbEEEEvT_(ptr noundef nonnull align 8 dereferenceable(32) %0, ptr noundef %1) #2 comdat align 2 {
  %3 = alloca ptr, align 8
  %4 = alloca ptr, align 8
  store ptr %0, ptr %3, align 8, !tbaa !26
  store ptr %1, ptr %4, align 8, !tbaa !9
  %5 = load ptr, ptr %3, align 8
  %6 = getelementptr inbounds nuw %"class.absl::Condition", ptr %5, i32 0, i32 0
  %7 = getelementptr inbounds [16 x i8], ptr %6, i64 0, i64 0
  call void @llvm.memcpy.p0.p0.i64(ptr align 8 %7, ptr align 8 %4, i64 8, i1 false)
  ret void
}

; Function Attrs: mustprogress nounwind uwtable
define linkonce_odr dso_local noundef zeroext i1 @_ZNKSt6atomicIbE4loadESt12memory_order(ptr noundef nonnull align 1 dereferenceable(1) %0, i32 noundef %1) #4 comdat align 2 {
  %3 = alloca ptr, align 8
  %4 = alloca i32, align 4
  store ptr %0, ptr %3, align 8, !tbaa !18
  store i32 %1, ptr %4, align 4, !tbaa !22
  %5 = load ptr, ptr %3, align 8
  %6 = getelementptr inbounds nuw %"struct.std::atomic.0", ptr %5, i32 0, i32 0
  %7 = load i32, ptr %4, align 4, !tbaa !22
  %8 = call noundef zeroext i1 @_ZNKSt13__atomic_baseIbE4loadESt12memory_order(ptr noundef nonnull align 1 dereferenceable(1) %6, i32 noundef %7) #9
  ret i1 %8
}

; Function Attrs: inlinehint mustprogress uwtable
define linkonce_odr dso_local void @_ZN4absl13base_internal13TraceContinueEPKvNS0_10ObjectKindE(ptr noundef %0, i32 noundef %1) #1 comdat {
  %3 = alloca ptr, align 8
  %4 = alloca i32, align 4
  store ptr %0, ptr %3, align 8, !tbaa !9
  store i32 %1, ptr %4, align 4, !tbaa !10
  %5 = load ptr, ptr %3, align 8, !tbaa !9
  %6 = load i32, ptr %4, align 4, !tbaa !10
  call void @AbslInternalTraceContinue(ptr noundef %5, i32 noundef %6)
  ret void
}

; Function Attrs: mustprogress uwtable
define linkonce_odr dso_local noundef zeroext i1 @_ZN4absl5Mutex19LockWhenWithTimeoutERKNS_9ConditionENS_8DurationE(ptr noundef nonnull align 8 dereferenceable(8) %0, ptr noundef nonnull align 8 dereferenceable(32) %1, i64 %2, i32 %3) #0 comdat align 2 {
  %5 = alloca %"class.absl::Duration", align 4
  %6 = alloca { i64, i32 }, align 4
  %7 = alloca ptr, align 8
  %8 = alloca ptr, align 8
  %9 = alloca %"class.absl::synchronization_internal::KernelTimeout", align 8
  %10 = alloca %"class.absl::Duration", align 4
  %11 = alloca { i64, i32 }, align 4
  %12 = getelementptr inbounds nuw { i64, i32 }, ptr %6, i32 0, i32 0
  store i64 %2, ptr %12, align 4
  %13 = getelementptr inbounds nuw { i64, i32 }, ptr %6, i32 0, i32 1
  store i32 %3, ptr %13, align 4
  call void @llvm.memcpy.p0.p0.i64(ptr align 4 %5, ptr align 4 %6, i64 12, i1 false)
  store ptr %0, ptr %7, align 8, !tbaa !14
  store ptr %1, ptr %8, align 8, !tbaa !26
  %14 = load ptr, ptr %7, align 8
  %15 = load ptr, ptr %8, align 8, !tbaa !26
  call void @llvm.memcpy.p0.p0.i64(ptr align 4 %10, ptr align 4 %5, i64 12, i1 false), !tbaa.struct !32
  call void @llvm.memcpy.p0.p0.i64(ptr align 4 %11, ptr align 4 %10, i64 12, i1 false)
  %16 = getelementptr inbounds nuw { i64, i32 }, ptr %11, i32 0, i32 0
  %17 = load i64, ptr %16, align 4
  %18 = getelementptr inbounds nuw { i64, i32 }, ptr %11, i32 0, i32 1
  %19 = load i32, ptr %18, align 4
  call void @_ZN4absl24synchronization_internal13KernelTimeoutC1ENS_8DurationE(ptr noundef nonnull align 8 dereferenceable(8) %9, i64 %17, i32 %19)
  %20 = getelementptr inbounds nuw %"class.absl::synchronization_internal::KernelTimeout", ptr %9, i32 0, i32 0
  %21 = load i64, ptr %20, align 8
  %22 = call noundef zeroext i1 @_ZN4absl5Mutex14LockWhenCommonERKNS_9ConditionENS_24synchronization_internal13KernelTimeoutEb(ptr noundef nonnull align 8 dereferenceable(8) %14, ptr noundef nonnull align 8 dereferenceable(32) %15, i64 %21, i1 noundef zeroext true)
  ret i1 %22
}

; Function Attrs: inlinehint mustprogress uwtable
define linkonce_odr dso_local void @_ZN4absl9ConditionC2IKSt6atomicIbEEEPFbPT_ES6_(ptr noundef nonnull align 8 dereferenceable(32) %0, ptr noundef %1, ptr noundef %2) unnamed_addr #1 comdat align 2 {
  %4 = alloca ptr, align 8
  %5 = alloca ptr, align 8
  %6 = alloca ptr, align 8
  store ptr %0, ptr %4, align 8, !tbaa !26
  store ptr %1, ptr %5, align 8, !tbaa !9
  store ptr %2, ptr %6, align 8, !tbaa !18
  %7 = load ptr, ptr %4, align 8
  %8 = getelementptr inbounds nuw %"class.absl::Condition", ptr %7, i32 0, i32 0
  store i8 0, ptr %8, align 1, !tbaa !28
  %9 = getelementptr inbounds i8, ptr %8, i64 1
  %10 = getelementptr inbounds i8, ptr %8, i64 16
  br label %11

11:                                               ; preds = %11, %3
  %12 = phi ptr [ %9, %3 ], [ %13, %11 ]
  store i8 0, ptr %12, align 1, !tbaa !28
  %13 = getelementptr inbounds i8, ptr %12, i64 1
  %14 = icmp eq ptr %13, %10
  br i1 %14, label %15, label %11

15:                                               ; preds = %11
  %16 = getelementptr inbounds nuw %"class.absl::Condition", ptr %7, i32 0, i32 1
  store ptr @_ZN4absl9Condition19CastAndCallFunctionIKSt6atomicIbEEEbPKS0_, ptr %16, align 8, !tbaa !29
  %17 = getelementptr inbounds nuw %"class.absl::Condition", ptr %7, i32 0, i32 2
  %18 = load ptr, ptr %6, align 8, !tbaa !18
  store ptr %18, ptr %17, align 8, !tbaa !31
  %19 = load ptr, ptr %5, align 8, !tbaa !9
  call void @_ZN4absl9Condition13StoreCallbackIPFbPKSt6atomicIbEEEEvT_(ptr noundef nonnull align 8 dereferenceable(32) %7, ptr noundef %19)
  ret void
}

; Function Attrs: inlinehint mustprogress nounwind uwtable
define linkonce_odr dso_local noundef zeroext i1 @_ZN4absl12Notification23HasBeenNotifiedInternalEPKSt6atomicIbE(ptr noundef %0) #2 comdat align 2 {
  %2 = alloca ptr, align 8
  store ptr %0, ptr %2, align 8, !tbaa !18
  %3 = load ptr, ptr %2, align 8, !tbaa !18
  %4 = call noundef zeroext i1 @_ZNKSt6atomicIbE4loadESt12memory_order(ptr noundef nonnull align 1 dereferenceable(1) %3, i32 noundef 2) #9
  ret i1 %4
}

; Function Attrs: inlinehint mustprogress uwtable
define linkonce_odr dso_local void @_ZN4absl13base_internal9TraceWaitEPKvNS0_10ObjectKindE(ptr noundef %0, i32 noundef %1) #1 comdat {
  %3 = alloca ptr, align 8
  %4 = alloca i32, align 4
  store ptr %0, ptr %3, align 8, !tbaa !9
  store i32 %1, ptr %4, align 4, !tbaa !10
  %5 = load ptr, ptr %3, align 8, !tbaa !9
  %6 = load i32, ptr %4, align 4, !tbaa !10
  call void @AbslInternalTraceWait(ptr noundef %5, i32 noundef %6)
  ret void
}

; Function Attrs: inlinehint mustprogress nounwind uwtable
define linkonce_odr dso_local noundef i32 @_ZN4absl12Notification15TraceObjectKindEv() #2 comdat align 2 {
  ret i32 2
}

; Function Attrs: mustprogress uwtable
define dso_local noundef zeroext i1 @_ZNK4absl12Notification30WaitForNotificationWithTimeoutENS_8DurationE(ptr noundef nonnull align 8 dereferenceable(9) %0, i64 %1, i32 %2) #0 align 2 {
  %4 = alloca %"class.absl::Duration", align 4
  %5 = alloca { i64, i32 }, align 4
  %6 = alloca ptr, align 8
  %7 = alloca i8, align 1
  %8 = alloca %"class.absl::Condition", align 8
  %9 = alloca %"class.absl::Duration", align 4
  %10 = alloca { i64, i32 }, align 4
  %11 = getelementptr inbounds nuw { i64, i32 }, ptr %5, i32 0, i32 0
  store i64 %1, ptr %11, align 4
  %12 = getelementptr inbounds nuw { i64, i32 }, ptr %5, i32 0, i32 1
  store i32 %2, ptr %12, align 4
  call void @llvm.memcpy.p0.p0.i64(ptr align 4 %4, ptr align 4 %5, i64 12, i1 false)
  store ptr %0, ptr %6, align 8, !tbaa !4
  %13 = load ptr, ptr %6, align 8
  %14 = call noundef i32 @_ZN4absl12Notification15TraceObjectKindEv()
  call void @_ZN4absl13base_internal9TraceWaitEPKvNS0_10ObjectKindE(ptr noundef %13, i32 noundef %14)
  call void @llvm.lifetime.start.p0(i64 1, ptr %7) #9
  %15 = getelementptr inbounds nuw %"class.absl::Notification", ptr %13, i32 0, i32 1
  %16 = call noundef zeroext i1 @_ZN4absl12Notification23HasBeenNotifiedInternalEPKSt6atomicIbE(ptr noundef %15)
  %17 = zext i1 %16 to i8
  store i8 %17, ptr %7, align 1, !tbaa !20
  %18 = load i8, ptr %7, align 1, !tbaa !20, !range !24, !noundef !25
  %19 = trunc i8 %18 to i1
  br i1 %19, label %30, label %20

20:                                               ; preds = %3
  %21 = getelementptr inbounds nuw %"class.absl::Notification", ptr %13, i32 0, i32 0
  call void @llvm.lifetime.start.p0(i64 32, ptr %8) #9
  %22 = getelementptr inbounds nuw %"class.absl::Notification", ptr %13, i32 0, i32 1
  call void @_ZN4absl9ConditionC2IKSt6atomicIbEEEPFbPT_ES6_(ptr noundef nonnull align 8 dereferenceable(32) %8, ptr noundef @_ZN4absl12Notification23HasBeenNotifiedInternalEPKSt6atomicIbE, ptr noundef %22)
  call void @llvm.memcpy.p0.p0.i64(ptr align 4 %9, ptr align 4 %4, i64 12, i1 false), !tbaa.struct !32
  call void @llvm.memcpy.p0.p0.i64(ptr align 4 %10, ptr align 4 %9, i64 12, i1 false)
  %23 = getelementptr inbounds nuw { i64, i32 }, ptr %10, i32 0, i32 0
  %24 = load i64, ptr %23, align 4
  %25 = getelementptr inbounds nuw { i64, i32 }, ptr %10, i32 0, i32 1
  %26 = load i32, ptr %25, align 4
  %27 = call noundef zeroext i1 @_ZN4absl5Mutex19LockWhenWithTimeoutERKNS_9ConditionENS_8DurationE(ptr noundef nonnull align 8 dereferenceable(8) %21, ptr noundef nonnull align 8 dereferenceable(32) %8, i64 %24, i32 %26)
  %28 = zext i1 %27 to i8
  store i8 %28, ptr %7, align 1, !tbaa !20
  call void @llvm.lifetime.end.p0(i64 32, ptr %8) #9
  %29 = getelementptr inbounds nuw %"class.absl::Notification", ptr %13, i32 0, i32 0
  call void @_ZN4absl5Mutex6UnlockEv(ptr noundef nonnull align 8 dereferenceable(8) %29)
  br label %30

30:                                               ; preds = %20, %3
  %31 = load i8, ptr %7, align 1, !tbaa !20, !range !24, !noundef !25
  %32 = trunc i8 %31 to i1
  br i1 %32, label %33, label %34

33:                                               ; preds = %30
  br label %35

34:                                               ; preds = %30
  br label %35

35:                                               ; preds = %34, %33
  %36 = phi ptr [ %13, %33 ], [ null, %34 ]
  %37 = call noundef i32 @_ZN4absl12Notification15TraceObjectKindEv()
  call void @_ZN4absl13base_internal13TraceContinueEPKvNS0_10ObjectKindE(ptr noundef %36, i32 noundef %37)
  %38 = load i8, ptr %7, align 1, !tbaa !20, !range !24, !noundef !25
  %39 = trunc i8 %38 to i1
  call void @llvm.lifetime.end.p0(i64 1, ptr %7) #9
  ret i1 %39
}